target datalayout = "e-m:e-p270:32:32-p271:32:32-p272:64:64-i64:64-i128:128-f80:128-n8:16:32:64-S128"
target triple = "x86_64-pc-linux-gnu"

%struct.Vec_Int_t_ = type { i32, i32, ptr }
%struct.Abc_BSEval_t_ = type { i32, i32, ptr, ptr, ptr, ptr, ptr }

@stdout = external global ptr, align 8
@.str.1 = private unnamed_addr constant [2 x i8] c"\0A\00", align 1
@.str.14 = private unnamed_addr constant [73 x i8] c"The minimum %s of the %d-var function with bound-sets of size %d is %d.\0A\00", align 1
@.str.15 = private unnamed_addr constant [16 x i8] c"number of rails\00", align 1
@.str.16 = private unnamed_addr constant [20 x i8] c"column multiplicity\00", align 1
@.str.17 = private unnamed_addr constant [11 x i8] c"Original: \00", align 1
@.str.18 = private unnamed_addr constant [11 x i8] c"Permuted: \00", align 1
@.str.19 = private unnamed_addr constant [16 x i8] c"Permutation is \00", align 1
@.str.20 = private unnamed_addr constant [4 x i8] c"%d \00", align 1

; Function Attrs: inlinehint nounwind uwtable
define internal i32 @Abc_TtWordNum(i32 noundef %0) #3 {
  %2 = alloca i32, align 4
  store i32 %0, ptr %2, align 4, !tbaa !8
  %3 = load i32, ptr %2, align 4, !tbaa !8
  %4 = icmp sle i32 %3, 6
  br i1 %4, label %5, label %6

5:                                                ; preds = %1
  br label %10

6:                                                ; preds = %1
  %7 = load i32, ptr %2, align 4, !tbaa !8
  %8 = sub nsw i32 %7, 6
  %9 = shl i32 1, %8
  br label %10

10:                                               ; preds = %6, %5
  %11 = phi i32 [ 1, %5 ], [ %9, %6 ]
  ret i32 %11
}

; Function Attrs: inlinehint nounwind uwtable
define internal void @Vec_IntFreeP(ptr noundef %0) #3 {
  %2 = alloca ptr, align 8
  store ptr %0, ptr %2, align 8, !tbaa !92
  %3 = load ptr, ptr %2, align 8, !tbaa !92
  %4 = load ptr, ptr %3, align 8, !tbaa !19
  %5 = icmp eq ptr %4, null
  br i1 %5, label %6, label %7

6:                                                ; preds = %1
  br label %32

7:                                                ; preds = %1
  %8 = load ptr, ptr %2, align 8, !tbaa !92
  %9 = load ptr, ptr %8, align 8, !tbaa !19
  %10 = getelementptr inbounds nuw %struct.Vec_Int_t_, ptr %9, i32 0, i32 2
  %11 = load ptr, ptr %10, align 8, !tbaa !29
  %12 = icmp ne ptr %11, null
  br i1 %12, label %13, label %21

13:                                               ; preds = %7
  %14 = load ptr, ptr %2, align 8, !tbaa !92
  %15 = load ptr, ptr %14, align 8, !tbaa !19
  %16 = getelementptr inbounds nuw %struct.Vec_Int_t_, ptr %15, i32 0, i32 2
  %17 = load ptr, ptr %16, align 8, !tbaa !29
  call void @free(ptr noundef %17) #12
  %18 = load ptr, ptr %2, align 8, !tbaa !92
  %19 = load ptr, ptr %18, align 8, !tbaa !19
  %20 = getelementptr inbounds nuw %struct.Vec_Int_t_, ptr %19, i32 0, i32 2
  store ptr null, ptr %20, align 8, !tbaa !29
  br label %22

21:                                               ; preds = %7
  br label %22

22:                                               ; preds = %21, %13
  %23 = load ptr, ptr %2, align 8, !tbaa !92
  %24 = load ptr, ptr %23, align 8, !tbaa !19
  %25 = icmp ne ptr %24, null
  br i1 %25, label %26, label %30

26:                                               ; preds = %22
  %27 = load ptr, ptr %2, align 8, !tbaa !92
  %28 = load ptr, ptr %27, align 8, !tbaa !19
  call void @free(ptr noundef %28) #12
  %29 = load ptr, ptr %2, align 8, !tbaa !92
  store ptr null, ptr %29, align 8, !tbaa !19
  br label %31

30:                                               ; preds = %22
  br label %31

31:                                               ; preds = %30, %26
  br label %32

32:                                               ; preds = %31, %6
  ret void
}

; Function Attrs: nounwind uwtable
define void @Abc_BSEvalBestTest(ptr noundef %0, i32 noundef %1, i32 noundef %2, i32 noundef %3, i32 noundef %4) #0 {
  %6 = alloca ptr, align 8
  %7 = alloca i32, align 4
  %8 = alloca i32, align 4
  %9 = alloca i32, align 4
  %10 = alloca i32, align 4
  %11 = alloca ptr, align 8
  %12 = alloca i32, align 4
  %13 = alloca [32 x i32], align 16
  %14 = alloca ptr, align 8
  %15 = alloca i32, align 4
  store ptr %0, ptr %6, align 8, !tbaa !3
  store i32 %1, ptr %7, align 4, !tbaa !8
  store i32 %2, ptr %8, align 4, !tbaa !8
  store i32 %3, ptr %9, align 4, !tbaa !8
  store i32 %4, ptr %10, align 4, !tbaa !8
  call void @llvm.lifetime.start.p0(i64 8, ptr %11) #12
  %16 = call ptr @Abc_BSEvalAlloc()
  store ptr %16, ptr %11, align 8, !tbaa !85
  call void @llvm.lifetime.start.p0(i64 4, ptr %12) #12
  call void @llvm.lifetime.start.p0(i64 128, ptr %13) #12
  call void @llvm.memset.p0.i64(ptr align 16 %13, i8 0, i64 128, i1 false)
  %17 = load ptr, ptr %11, align 8, !tbaa !85
  %18 = getelementptr inbounds nuw %struct.Abc_BSEval_t_, ptr %17, i32 0, i32 0
  %19 = load i32, ptr %18, align 8, !tbaa !94
  %20 = load i32, ptr %7, align 4, !tbaa !8
  %21 = icmp ne i32 %19, %20
  br i1 %21, label %28, label %22

22:                                               ; preds = %5
  %23 = load ptr, ptr %11, align 8, !tbaa !85
  %24 = getelementptr inbounds nuw %struct.Abc_BSEval_t_, ptr %23, i32 0, i32 1
  %25 = load i32, ptr %24, align 4, !tbaa !95
  %26 = load i32, ptr %8, align 4, !tbaa !8
  %27 = icmp ne i32 %25, %26
  br i1 %27, label %28, label %42

28:                                               ; preds = %22, %5
  %29 = load ptr, ptr %11, align 8, !tbaa !85
  %30 = getelementptr inbounds nuw %struct.Abc_BSEval_t_, ptr %29, i32 0, i32 2
  call void @Vec_IntFreeP(ptr noundef %30)
  %31 = load i32, ptr %7, align 4, !tbaa !8
  %32 = load i32, ptr %8, align 4, !tbaa !8
  %33 = call ptr @Abc_GenChasePairs(i32 noundef %31, i32 noundef %32)
  %34 = load ptr, ptr %11, align 8, !tbaa !85
  %35 = getelementptr inbounds nuw %struct.Abc_BSEval_t_, ptr %34, i32 0, i32 2
  store ptr %33, ptr %35, align 8, !tbaa !96
  %36 = load i32, ptr %7, align 4, !tbaa !8
  %37 = load ptr, ptr %11, align 8, !tbaa !85
  %38 = getelementptr inbounds nuw %struct.Abc_BSEval_t_, ptr %37, i32 0, i32 0
  store i32 %36, ptr %38, align 8, !tbaa !94
  %39 = load i32, ptr %8, align 4, !tbaa !8
  %40 = load ptr, ptr %11, align 8, !tbaa !85
  %41 = getelementptr inbounds nuw %struct.Abc_BSEval_t_, ptr %40, i32 0, i32 1
  store i32 %39, ptr %41, align 4, !tbaa !95
  br label %42

42:                                               ; preds = %28, %22
  call void @llvm.lifetime.start.p0(i64 8, ptr %14) #12
  %43 = load i32, ptr %7, align 4, !tbaa !8
  %44 = call i32 @Abc_TtWordNum(i32 noundef %43)
  %45 = sext i32 %44 to i64
  %46 = mul i64 8, %45
  %47 = call noalias ptr @malloc(i64 noundef %46) #14
  store ptr %47, ptr %14, align 8, !tbaa !3
  call void @llvm.lifetime.start.p0(i64 4, ptr %15) #12
  %48 = load ptr, ptr %11, align 8, !tbaa !85
  %49 = load ptr, ptr %6, align 8, !tbaa !3
  %50 = load ptr, ptr %14, align 8, !tbaa !3
  %51 = load i32, ptr %7, align 4, !tbaa !8
  %52 = load i32, ptr %7, align 4, !tbaa !8
  %53 = load i32, ptr %8, align 4, !tbaa !8
  %54 = sub nsw i32 %52, %53
  %55 = load i32, ptr %10, align 4, !tbaa !8
  %56 = getelementptr inbounds [32 x i32], ptr %13, i64 0, i64 0
  %57 = load i32, ptr %9, align 4, !tbaa !8
  %58 = call i32 @Abc_BSEvalBest(ptr noundef %48, ptr noundef %49, ptr noundef %50, i32 noundef %51, i32 noundef 0, i32 noundef %54, i32 noundef %55, ptr noundef %56, i32 noundef %57)
  store i32 %58, ptr %15, align 4, !tbaa !8
  %59 = load i32, ptr %9, align 4, !tbaa !8
  %60 = icmp ne i32 %59, 0
  %61 = select i1 %60, ptr @.str.15, ptr @.str.16
  %62 = load i32, ptr %7, align 4, !tbaa !8
  %63 = load i32, ptr %8, align 4, !tbaa !8
  %64 = load i32, ptr %15, align 4, !tbaa !8
  %65 = call i32 (ptr, ...) @printf(ptr noundef @.str.14, ptr noundef %61, i32 noundef %62, i32 noundef %63, i32 noundef %64)
  %66 = call i32 (ptr, ...) @printf(ptr noundef @.str.17)
  %67 = load ptr, ptr @stdout, align 8, !tbaa !62
  %68 = load ptr, ptr %6, align 8, !tbaa !3
  %69 = load i32, ptr %7, align 4, !tbaa !8
  call void @Extra_PrintHex(ptr noundef %67, ptr noundef %68, i32 noundef %69)
  %70 = call i32 (ptr, ...) @printf(ptr noundef @.str.1)
  %71 = call i32 (ptr, ...) @printf(ptr noundef @.str.18)
  %72 = load ptr, ptr @stdout, align 8, !tbaa !62
  %73 = load ptr, ptr %14, align 8, !tbaa !3
  %74 = load i32, ptr %7, align 4, !tbaa !8
  call void @Extra_PrintHex(ptr noundef %72, ptr noundef %73, i32 noundef %74)
  %75 = call i32 (ptr, ...) @printf(ptr noundef @.str.1)
  %76 = call i32 (ptr, ...) @printf(ptr noundef @.str.19)
  store i32 0, ptr %12, align 4, !tbaa !8
  br label %77

77:                                               ; preds = %87, %42
  %78 = load i32, ptr %12, align 4, !tbaa !8
  %79 = load i32, ptr %7, align 4, !tbaa !8
  %80 = icmp slt i32 %78, %79
  br i1 %80, label %81, label %90

81:                                               ; preds = %77
  %82 = load i32, ptr %12, align 4, !tbaa !8
  %83 = sext i32 %82 to i64
  %84 = getelementptr inbounds [32 x i32], ptr %13, i64 0, i64 %83
  %85 = load i32, ptr %84, align 4, !tbaa !8
  %86 = call i32 (ptr, ...) @printf(ptr noundef @.str.20, i32 noundef %85)
  br label %87

87:                                               ; preds = %81
  %88 = load i32, ptr %12, align 4, !tbaa !8
  %89 = add nsw i32 %88, 1
  store i32 %89, ptr %12, align 4, !tbaa !8
  br label %77, !llvm.loop !112

90:                                               ; preds = %77
  %91 = call i32 (ptr, ...) @printf(ptr noundef @.str.1)
  %92 = load ptr, ptr %14, align 8, !tbaa !3
  %93 = icmp ne ptr %92, null
  br i1 %93, label %94, label %96

94:                                               ; preds = %90
  %95 = load ptr, ptr %14, align 8, !tbaa !3
  call void @free(ptr noundef %95) #12
  store ptr null, ptr %14, align 8, !tbaa !3
  br label %97

96:                                               ; preds = %90
  br label %97

97:                                               ; preds = %96, %94
  %98 = load ptr, ptr %11, align 8, !tbaa !85
  call void @Abc_BSEvalFree(ptr noundef %98)
  call void @llvm.lifetime.end.p0(i64 4, ptr %15) #12
  call void @llvm.lifetime.end.p0(i64 8, ptr %14) #12
  call void @llvm.lifetime.end.p0(i64 128, ptr %13) #12
  call void @llvm.lifetime.end.p0(i64 4, ptr %12) #12
  call void @llvm.lifetime.end.p0(i64 8, ptr %11) #12
  ret void
}