; Function Attrs: nounwind uwtable
define void @Abc_BSEvalBestTest(ptr noundef %0, i32 noundef %1, i32 noundef %2, i32 noundef %3, i32 noundef %4) local_unnamed_addr #3 {
  %6 = alloca [32 x i32], align 16
  %7 = tail call ptr @Abc_BSEvalAlloc()
  call void @llvm.lifetime.start.p0(i64 128, ptr nonnull %6) #24
  call void @llvm.memset.p0.i64(ptr noundef nonnull align 16 dereferenceable(128) %6, i8 0, i64 128, i1 false)
  %8 = load i32, ptr %7, align 8, !tbaa !79
  %.not = icmp eq i32 %8, %1
  br i1 %.not, label %9, label %12

9:                                                ; preds = %5
  %10 = getelementptr inbounds nuw i8, ptr %7, i64 4
  %11 = load i32, ptr %10, align 4, !tbaa !80
  %.not36 = icmp eq i32 %11, %2
  br i1 %.not36, label %22, label %12

12:                                               ; preds = %9, %5
  %13 = getelementptr inbounds nuw i8, ptr %7, i64 8
  %14 = load ptr, ptr %13, align 8, !tbaa !78
  %15 = icmp eq ptr %14, null
  br i1 %15, label %Vec_IntFreeP.exit, label %16

16:                                               ; preds = %12
  %17 = getelementptr inbounds nuw i8, ptr %14, i64 8
  %18 = load ptr, ptr %17, align 8, !tbaa !18
  %.not.i = icmp eq ptr %18, null
  br i1 %.not.i, label %19, label %.thread.i

.thread.i:                                        ; preds = %16
  tail call void @free(ptr noundef nonnull %18) #24
  br label %19

19:                                               ; preds = %.thread.i, %16
  tail call void @free(ptr noundef nonnull %14) #24
  br label %Vec_IntFreeP.exit

Vec_IntFreeP.exit:                                ; preds = %12, %19
  %20 = tail call ptr @Abc_GenChasePairs(i32 noundef %1, i32 noundef %2)
  store ptr %20, ptr %13, align 8, !tbaa !81
  store i32 %1, ptr %7, align 8, !tbaa !79
  %21 = getelementptr inbounds nuw i8, ptr %7, i64 4
  store i32 %2, ptr %21, align 4, !tbaa !80
  br label %22

22:                                               ; preds = %Vec_IntFreeP.exit, %9
  %23 = icmp slt i32 %1, 7
  %24 = add nsw i32 %1, -6
  %25 = shl nuw i32 1, %24
  %26 = select i1 %23, i32 1, i32 %25
  %27 = sext i32 %26 to i64
  %28 = shl nsw i64 %27, 3
  %29 = tail call noalias ptr @malloc(i64 noundef %28) #26
  %30 = sub nsw i32 %1, %2
  %31 = call i32 @Abc_BSEvalBest(ptr noundef nonnull %7, ptr noundef %0, ptr noundef %29, i32 noundef %1, i32 noundef 0, i32 noundef %30, i32 noundef %4, ptr noundef nonnull %6, i32 noundef %3)
  %.not37 = icmp eq i32 %3, 0
  %32 = select i1 %.not37, ptr @.str.16, ptr @.str.15
  %33 = call i32 (ptr, ...) @printf(ptr noundef nonnull dereferenceable(1) @.str.14, ptr noundef nonnull %32, i32 noundef %1, i32 noundef %2, i32 noundef %31)
  %34 = call i32 (ptr, ...) @printf(ptr noundef nonnull dereferenceable(1) @.str.17)
  %35 = load ptr, ptr @stdout, align 8, !tbaa !52
  call void @Extra_PrintHex(ptr noundef %35, ptr noundef %0, i32 noundef %1) #24
  %putchar = call i32 @putchar(i32 10)
  %36 = call i32 (ptr, ...) @printf(ptr noundef nonnull dereferenceable(1) @.str.18)
  %37 = load ptr, ptr @stdout, align 8, !tbaa !52
  call void @Extra_PrintHex(ptr noundef %37, ptr noundef %29, i32 noundef %1) #24
  %putchar38 = call i32 @putchar(i32 10)
  %38 = call i32 (ptr, ...) @printf(ptr noundef nonnull dereferenceable(1) @.str.19)
  %39 = icmp sgt i32 %1, 0
  br i1 %39, label %.lr.ph.preheader, label %._crit_edge

.lr.ph.preheader:                                 ; preds = %22
  %wide.trip.count = zext nneg i32 %1 to i64
  br label %.lr.ph

.lr.ph:                                           ; preds = %.lr.ph.preheader, %.lr.ph
  %indvars.iv = phi i64 [ 0, %.lr.ph.preheader ], [ %indvars.iv.next, %.lr.ph ]
  %40 = getelementptr inbounds nuw [32 x i32], ptr %6, i64 0, i64 %indvars.iv
  %41 = load i32, ptr %40, align 4, !tbaa !7
  %42 = call i32 (ptr, ...) @printf(ptr noundef nonnull dereferenceable(1) @.str.20, i32 noundef %41)
  %indvars.iv.next = add nuw nsw i64 %indvars.iv, 1
  %exitcond.not = icmp eq i64 %indvars.iv.next, %wide.trip.count
  br i1 %exitcond.not, label %._crit_edge, label %.lr.ph, !llvm.loop !96

._crit_edge:                                      ; preds = %.lr.ph, %22
  %putchar39 = call i32 @putchar(i32 10)
  %.not40 = icmp eq ptr %29, null
  br i1 %.not40, label %44, label %43

43:                                               ; preds = %._crit_edge
  call void @free(ptr noundef nonnull %29) #24
  br label %44

44:                                               ; preds = %._crit_edge, %43
  call void @Abc_BSEvalFree(ptr noundef nonnull %7)
  call void @llvm.lifetime.end.p0(i64 128, ptr nonnull %6) #24
  ret void
}